; Function Attrs: nounwind uwtable
define internal fastcc void @sock_capi_free(ptr noundef %0) unnamed_addr #0 {
  %2 = load ptr, ptr %0, align 8, !tbaa !124
  %.not.i7 = icmp eq ptr %2, null
  br i1 %.not.i7, label %Py_XDECREF.exit, label %3

3:                                                ; preds = %1
  %4 = load i32, ptr %2, align 8, !tbaa !18
  %.not.i.i = icmp sgt i32 %4, -1
  br i1 %.not.i.i, label %5, label %Py_XDECREF.exit

5:                                                ; preds = %3
  %6 = add nsw i32 %4, -1
  store i32 %6, ptr %2, align 8, !tbaa !18
  %7 = icmp eq i32 %6, 0
  br i1 %7, label %8, label %Py_XDECREF.exit

8:                                                ; preds = %5
  tail call void @_Py_Dealloc(ptr noundef nonnull %2) #13
  br label %Py_XDECREF.exit

Py_XDECREF.exit:                                  ; preds = %1, %3, %5, %8
  %9 = getelementptr inbounds nuw i8, ptr %0, i64 8
  %10 = load ptr, ptr %9, align 8, !tbaa !126
  %11 = load i32, ptr %10, align 8, !tbaa !18
  %.not.i4 = icmp sgt i32 %11, -1
  br i1 %.not.i4, label %12, label %Py_DECREF.exit5

12:                                               ; preds = %Py_XDECREF.exit
  %13 = add nsw i32 %11, -1
  store i32 %13, ptr %10, align 8, !tbaa !18
  %14 = icmp eq i32 %13, 0
  br i1 %14, label %15, label %Py_DECREF.exit5

15:                                               ; preds = %12
  tail call void @_Py_Dealloc(ptr noundef nonnull %10) #13
  br label %Py_DECREF.exit5

Py_DECREF.exit5:                                  ; preds = %Py_XDECREF.exit, %12, %15
  %16 = getelementptr inbounds nuw i8, ptr %0, i64 16
  %17 = load ptr, ptr %16, align 8, !tbaa !127
  %18 = load i32, ptr %17, align 8, !tbaa !18
  %.not.i = icmp sgt i32 %18, -1
  br i1 %.not.i, label %19, label %Py_DECREF.exit

19:                                               ; preds = %Py_DECREF.exit5
  %20 = add nsw i32 %18, -1
  store i32 %20, ptr %17, align 8, !tbaa !18
  %21 = icmp eq i32 %20, 0
  br i1 %21, label %22, label %Py_DECREF.exit

22:                                               ; preds = %19
  tail call void @_Py_Dealloc(ptr noundef nonnull %17) #13
  br label %Py_DECREF.exit

Py_DECREF.exit:                                   ; preds = %Py_DECREF.exit5, %19, %22
  tail call void @PyMem_Free(ptr noundef nonnull %0) #13
  ret void
}